; Function Attrs: mustprogress uwtable
define internal fastcc void @_ZN4Luau7CodeGenL17appendRegisterSetERNS0_17IrToStringContextERKNS0_11RegisterSetEPKc(ptr noundef nonnull readonly align 8 captures(none) dereferenceable(40) %0, ptr noundef nonnull readonly align 8 captures(none) dereferenceable(34) %1, ptr noundef %2) unnamed_addr #1 personality ptr @__gxx_personality_v0 {
  br label %_ZNKSt6bitsetILm256EE4testEm.exit

4:                                                ; preds = %28
  %5 = getelementptr inbounds nuw i8, ptr %1, i64 32
  %6 = load i8, ptr %5, align 8, !tbaa !83, !range !87, !noundef !88
  %7 = trunc nuw i8 %6 to i1
  br i1 %7, label %30, label %46

_ZNKSt6bitsetILm256EE4testEm.exit:                ; preds = %3, %28
  %.019 = phi i64 [ 0, %3 ], [ %29, %28 ]
  %.01518 = phi i8 [ 0, %3 ], [ %.1, %28 ]
  %8 = lshr i64 %.019, 6
  %9 = getelementptr inbounds nuw [4 x i64], ptr %1, i64 0, i64 %8
  %10 = load i64, ptr %9, align 8, !tbaa !77
  %11 = and i64 %.019, 63
  %12 = shl nuw i64 1, %11
  %13 = and i64 %10, %12
  %.not = icmp eq i64 %13, 0
  br i1 %.not, label %28, label %14

14:                                               ; preds = %_ZNKSt6bitsetILm256EE4testEm.exit
  %15 = trunc nuw i8 %.01518 to i1
  br i1 %15, label %16, label %25

16:                                               ; preds = %14
  %17 = load ptr, ptr %0, align 8, !tbaa !4
  %18 = tail call noundef i64 @strlen(ptr noundef nonnull dereferenceable(1) %2) #16
  %19 = getelementptr inbounds nuw i8, ptr %17, i64 8
  %20 = load i64, ptr %19, align 8, !tbaa !26
  %21 = sub i64 4611686018427387903, %20
  %22 = icmp ult i64 %21, %18
  br i1 %22, label %23, label %_ZNSt7__cxx1112basic_stringIcSt11char_traitsIcESaIcEE6appendEPKc.exit

23:                                               ; preds = %16
  tail call void @_ZSt20__throw_length_errorPKc(ptr noundef nonnull @.str.256) #17
  unreachable

_ZNSt7__cxx1112basic_stringIcSt11char_traitsIcESaIcEE6appendEPKc.exit: ; preds = %16
  %24 = tail call noundef nonnull align 8 dereferenceable(32) ptr @_ZNSt7__cxx1112basic_stringIcSt11char_traitsIcESaIcEE9_M_appendEPKcm(ptr noundef nonnull align 8 dereferenceable(32) %17, ptr noundef nonnull %2, i64 noundef %18)
  br label %25

25:                                               ; preds = %_ZNSt7__cxx1112basic_stringIcSt11char_traitsIcESaIcEE6appendEPKc.exit, %14
  %26 = load ptr, ptr %0, align 8, !tbaa !4
  %27 = trunc nuw i64 %.019 to i32
  tail call void (ptr, ptr, ...) @_ZN4Luau7CodeGenL6appendERNSt7__cxx1112basic_stringIcSt11char_traitsIcESaIcEEEPKcz(ptr noundef nonnull align 8 dereferenceable(32) %26, ptr noundef nonnull @.str.159, i32 noundef %27)
  br label %28

28:                                               ; preds = %_ZNKSt6bitsetILm256EE4testEm.exit, %25
  %.1 = phi i8 [ 1, %25 ], [ %.01518, %_ZNKSt6bitsetILm256EE4testEm.exit ]
  %29 = add nuw nsw i64 %.019, 1
  %exitcond.not = icmp eq i64 %29, 256
  br i1 %exitcond.not, label %4, label %_ZNKSt6bitsetILm256EE4testEm.exit, !llvm.loop !92

30:                                               ; preds = %4
  %31 = trunc nuw i8 %.1 to i1
  br i1 %31, label %32, label %41

32:                                               ; preds = %30
  %33 = load ptr, ptr %0, align 8, !tbaa !4
  %34 = tail call noundef i64 @strlen(ptr noundef nonnull dereferenceable(1) %2) #16
  %35 = getelementptr inbounds nuw i8, ptr %33, i64 8
  %36 = load i64, ptr %35, align 8, !tbaa !26
  %37 = sub i64 4611686018427387903, %36
  %38 = icmp ult i64 %37, %34
  br i1 %38, label %39, label %_ZNSt7__cxx1112basic_stringIcSt11char_traitsIcESaIcEE6appendEPKc.exit16

39:                                               ; preds = %32
  tail call void @_ZSt20__throw_length_errorPKc(ptr noundef nonnull @.str.256) #17
  unreachable

_ZNSt7__cxx1112basic_stringIcSt11char_traitsIcESaIcEE6appendEPKc.exit16: ; preds = %32
  %40 = tail call noundef nonnull align 8 dereferenceable(32) ptr @_ZNSt7__cxx1112basic_stringIcSt11char_traitsIcESaIcEE9_M_appendEPKcm(ptr noundef nonnull align 8 dereferenceable(32) %33, ptr noundef nonnull %2, i64 noundef %34)
  br label %41

41:                                               ; preds = %_ZNSt7__cxx1112basic_stringIcSt11char_traitsIcESaIcEE6appendEPKc.exit16, %30
  %42 = load ptr, ptr %0, align 8, !tbaa !4
  %43 = getelementptr inbounds nuw i8, ptr %1, i64 33
  %44 = load i8, ptr %43, align 1, !tbaa !89
  %45 = zext i8 %44 to i32
  tail call void (ptr, ptr, ...) @_ZN4Luau7CodeGenL6appendERNSt7__cxx1112basic_stringIcSt11char_traitsIcESaIcEEEPKcz(ptr noundef nonnull align 8 dereferenceable(32) %42, ptr noundef nonnull @.str.244, i32 noundef %45)
  br label %46

46:                                               ; preds = %41, %4
  ret void
}